; Function Attrs: mustprogress nounwind uwtable
define hidden void @_ZN23G1PageBasedVirtualSpace11commit_tailEv(ptr nocapture noundef nonnull readonly align 8 dereferenceable(81) %0) local_unnamed_addr #0 align 2 {
  %2 = getelementptr inbounds i8, ptr %0, i64 8
  %3 = load ptr, ptr %2, align 8
  %4 = getelementptr inbounds i8, ptr %0, i64 24
  %5 = load i64, ptr %4, align 8
  %6 = ptrtoint ptr %3 to i64
  %7 = sub i64 0, %5
  %8 = and i64 %7, %6
  %9 = inttoptr i64 %8 to ptr
  %10 = getelementptr inbounds i8, ptr %0, i64 16
  %11 = load i64, ptr %10, align 8
  %12 = load i64, ptr @_ZN6OSInfo13_vm_page_sizeE, align 8
  tail call void @_ZN2os21commit_memory_or_exitEPcmmbPKc(ptr noundef %9, i64 noundef %11, i64 noundef %12, i1 noundef zeroext false, ptr noundef nonnull @.str.16) #10
  ret void
}